target datalayout = "e-m:e-p270:32:32-p271:32:32-p272:64:64-i64:64-i128:128-f80:128-n8:16:32:64-S128"
target triple = "x86_64-pc-linux-gnu"

%struct.RDTDemuxContext = type { ptr, ptr, i32, ptr, ptr, i32, i32, i32 }

; Function Attrs: nounwind uwtable
define i32 @ff_rdt_parse_packet(ptr noundef %0, ptr noundef %1, ptr noundef %2, i32 noundef %3) #0 {
  %5 = alloca i32, align 4
  %6 = alloca ptr, align 8
  %7 = alloca ptr, align 8
  %8 = alloca ptr, align 8
  %9 = alloca i32, align 4
  %10 = alloca ptr, align 8
  %11 = alloca i32, align 4
  %12 = alloca i32, align 4
  %13 = alloca i32, align 4
  %14 = alloca i32, align 4
  %15 = alloca i32, align 4
  %16 = alloca i32, align 4
  %17 = alloca i32, align 4
  %18 = alloca i32, align 4
  store ptr %0, ptr %6, align 8, !tbaa !14
  store ptr %1, ptr %7, align 8, !tbaa !72
  store ptr %2, ptr %8, align 8, !tbaa !74
  store i32 %3, ptr %9, align 4, !tbaa !9
  call void @llvm.lifetime.start.p0(i64 8, ptr %10) #12
  %19 = load ptr, ptr %8, align 8, !tbaa !74
  %20 = icmp ne ptr %19, null
  br i1 %20, label %21, label %24

21:                                               ; preds = %4
  %22 = load ptr, ptr %8, align 8, !tbaa !74
  %23 = load ptr, ptr %22, align 8, !tbaa !55
  br label %25

24:                                               ; preds = %4
  br label %25

25:                                               ; preds = %24, %21
  %26 = phi ptr [ %23, %21 ], [ null, %24 ]
  store ptr %26, ptr %10, align 8, !tbaa !55
  call void @llvm.lifetime.start.p0(i64 4, ptr %11) #12
  call void @llvm.lifetime.start.p0(i64 4, ptr %12) #12
  store i32 0, ptr %12, align 4, !tbaa !9
  call void @llvm.lifetime.start.p0(i64 4, ptr %13) #12
  call void @llvm.lifetime.start.p0(i64 4, ptr %14) #12
  call void @llvm.lifetime.start.p0(i64 4, ptr %15) #12
  call void @llvm.lifetime.start.p0(i64 4, ptr %16) #12
  call void @llvm.lifetime.start.p0(i64 4, ptr %17) #12
  store i32 0, ptr %17, align 4, !tbaa !9
  %27 = load ptr, ptr %6, align 8, !tbaa !14
  %28 = getelementptr inbounds nuw %struct.RDTDemuxContext, ptr %27, i32 0, i32 4
  %29 = load ptr, ptr %28, align 8, !tbaa !53
  %30 = icmp ne ptr %29, null
  br i1 %30, label %32, label %31

31:                                               ; preds = %25
  store i32 -1, ptr %5, align 4
  store i32 1, ptr %18, align 4
  br label %151

32:                                               ; preds = %25
  %33 = load ptr, ptr %10, align 8, !tbaa !55
  %34 = icmp ne ptr %33, null
  br i1 %34, label %63, label %35

35:                                               ; preds = %32
  %36 = load ptr, ptr %6, align 8, !tbaa !14
  %37 = getelementptr inbounds nuw %struct.RDTDemuxContext, ptr %36, i32 0, i32 7
  %38 = load i32, ptr %37, align 8, !tbaa !49
  %39 = icmp ne i32 %38, -1
  br i1 %39, label %40, label %63

40:                                               ; preds = %35
  store i32 0, ptr %16, align 4, !tbaa !9
  %41 = load ptr, ptr %6, align 8, !tbaa !14
  %42 = getelementptr inbounds nuw %struct.RDTDemuxContext, ptr %41, i32 0, i32 4
  %43 = load ptr, ptr %42, align 8, !tbaa !53
  %44 = load ptr, ptr %6, align 8, !tbaa !14
  %45 = getelementptr inbounds nuw %struct.RDTDemuxContext, ptr %44, i32 0, i32 0
  %46 = load ptr, ptr %45, align 8, !tbaa !16
  %47 = load ptr, ptr %6, align 8, !tbaa !14
  %48 = getelementptr inbounds nuw %struct.RDTDemuxContext, ptr %47, i32 0, i32 3
  %49 = load ptr, ptr %48, align 8, !tbaa !54
  %50 = load ptr, ptr %6, align 8, !tbaa !14
  %51 = getelementptr inbounds nuw %struct.RDTDemuxContext, ptr %50, i32 0, i32 1
  %52 = load ptr, ptr %51, align 8, !tbaa !34
  %53 = load ptr, ptr %6, align 8, !tbaa !14
  %54 = getelementptr inbounds nuw %struct.RDTDemuxContext, ptr %53, i32 0, i32 7
  %55 = load i32, ptr %54, align 8, !tbaa !49
  %56 = sext i32 %55 to i64
  %57 = getelementptr inbounds ptr, ptr %52, i64 %56
  %58 = load ptr, ptr %57, align 8, !tbaa !37
  %59 = load ptr, ptr %7, align 8, !tbaa !72
  %60 = load i32, ptr %12, align 4, !tbaa !9
  %61 = call i32 %43(ptr noundef %46, ptr noundef %49, ptr noundef %58, ptr noundef %59, ptr noundef %16, ptr noundef null, i32 noundef 0, i16 noundef zeroext 0, i32 noundef %60)
  store i32 %61, ptr %17, align 4, !tbaa !9
  %62 = load i32, ptr %17, align 4, !tbaa !9
  store i32 %62, ptr %5, align 4
  store i32 1, ptr %18, align 4
  br label %151

63:                                               ; preds = %35, %32
  %64 = load i32, ptr %9, align 4, !tbaa !9
  %65 = icmp slt i32 %64, 12
  br i1 %65, label %66, label %67

66:                                               ; preds = %63
  store i32 -1, ptr %5, align 4
  store i32 1, ptr %18, align 4
  br label %151

67:                                               ; preds = %63
  %68 = load ptr, ptr %10, align 8, !tbaa !55
  %69 = load i32, ptr %9, align 4, !tbaa !9
  %70 = call i32 @ff_rdt_parse_header(ptr noundef %68, i32 noundef %69, ptr noundef %14, ptr noundef %11, ptr noundef %13, ptr noundef %15, ptr noundef %16)
  store i32 %70, ptr %17, align 4, !tbaa !9
  %71 = load i32, ptr %17, align 4, !tbaa !9
  %72 = icmp slt i32 %71, 0
  br i1 %72, label %73, label %75

73:                                               ; preds = %67
  %74 = load i32, ptr %17, align 4, !tbaa !9
  store i32 %74, ptr %5, align 4
  store i32 1, ptr %18, align 4
  br label %151

75:                                               ; preds = %67
  %76 = load i32, ptr %15, align 4, !tbaa !9
  %77 = icmp ne i32 %76, 0
  br i1 %77, label %78, label %105

78:                                               ; preds = %75
  %79 = load i32, ptr %14, align 4, !tbaa !9
  %80 = load ptr, ptr %6, align 8, !tbaa !14
  %81 = getelementptr inbounds nuw %struct.RDTDemuxContext, ptr %80, i32 0, i32 6
  %82 = load i32, ptr %81, align 4, !tbaa !48
  %83 = icmp ne i32 %79, %82
  br i1 %83, label %96, label %84

84:                                               ; preds = %78
  %85 = load i32, ptr %16, align 4, !tbaa !9
  %86 = load ptr, ptr %6, align 8, !tbaa !14
  %87 = getelementptr inbounds nuw %struct.RDTDemuxContext, ptr %86, i32 0, i32 5
  %88 = load i32, ptr %87, align 8, !tbaa !50
  %89 = icmp ne i32 %85, %88
  br i1 %89, label %96, label %90

90:                                               ; preds = %84
  %91 = load i32, ptr %13, align 4, !tbaa !9
  %92 = load ptr, ptr %6, align 8, !tbaa !14
  %93 = getelementptr inbounds nuw %struct.RDTDemuxContext, ptr %92, i32 0, i32 7
  %94 = load i32, ptr %93, align 8, !tbaa !49
  %95 = icmp ne i32 %91, %94
  br i1 %95, label %96, label %105

96:                                               ; preds = %90, %84, %78
  %97 = load i32, ptr %12, align 4, !tbaa !9
  %98 = or i32 %97, 1
  store i32 %98, ptr %12, align 4, !tbaa !9
  %99 = load i32, ptr %14, align 4, !tbaa !9
  %100 = load ptr, ptr %6, align 8, !tbaa !14
  %101 = getelementptr inbounds nuw %struct.RDTDemuxContext, ptr %100, i32 0, i32 6
  store i32 %99, ptr %101, align 4, !tbaa !48
  %102 = load i32, ptr %16, align 4, !tbaa !9
  %103 = load ptr, ptr %6, align 8, !tbaa !14
  %104 = getelementptr inbounds nuw %struct.RDTDemuxContext, ptr %103, i32 0, i32 5
  store i32 %102, ptr %104, align 8, !tbaa !50
  br label %105

105:                                              ; preds = %96, %90, %75
  %106 = load i32, ptr %13, align 4, !tbaa !9
  %107 = load ptr, ptr %6, align 8, !tbaa !14
  %108 = getelementptr inbounds nuw %struct.RDTDemuxContext, ptr %107, i32 0, i32 7
  store i32 %106, ptr %108, align 8, !tbaa !49
  %109 = load i32, ptr %17, align 4, !tbaa !9
  %110 = load ptr, ptr %10, align 8, !tbaa !55
  %111 = sext i32 %109 to i64
  %112 = getelementptr inbounds i8, ptr %110, i64 %111
  store ptr %112, ptr %10, align 8, !tbaa !55
  %113 = load i32, ptr %17, align 4, !tbaa !9
  %114 = load i32, ptr %9, align 4, !tbaa !9
  %115 = sub nsw i32 %114, %113
  store i32 %115, ptr %9, align 4, !tbaa !9
  %116 = load ptr, ptr %6, align 8, !tbaa !14
  %117 = getelementptr inbounds nuw %struct.RDTDemuxContext, ptr %116, i32 0, i32 7
  %118 = load i32, ptr %117, align 8, !tbaa !49
  %119 = load ptr, ptr %6, align 8, !tbaa !14
  %120 = getelementptr inbounds nuw %struct.RDTDemuxContext, ptr %119, i32 0, i32 2
  %121 = load i32, ptr %120, align 8, !tbaa !35
  %122 = icmp sge i32 %118, %121
  br i1 %122, label %123, label %126

123:                                              ; preds = %105
  %124 = load ptr, ptr %6, align 8, !tbaa !14
  %125 = getelementptr inbounds nuw %struct.RDTDemuxContext, ptr %124, i32 0, i32 7
  store i32 -1, ptr %125, align 8, !tbaa !49
  store i32 -1, ptr %5, align 4
  store i32 1, ptr %18, align 4
  br label %151

126:                                              ; preds = %105
  %127 = load ptr, ptr %6, align 8, !tbaa !14
  %128 = getelementptr inbounds nuw %struct.RDTDemuxContext, ptr %127, i32 0, i32 4
  %129 = load ptr, ptr %128, align 8, !tbaa !53
  %130 = load ptr, ptr %6, align 8, !tbaa !14
  %131 = getelementptr inbounds nuw %struct.RDTDemuxContext, ptr %130, i32 0, i32 0
  %132 = load ptr, ptr %131, align 8, !tbaa !16
  %133 = load ptr, ptr %6, align 8, !tbaa !14
  %134 = getelementptr inbounds nuw %struct.RDTDemuxContext, ptr %133, i32 0, i32 3
  %135 = load ptr, ptr %134, align 8, !tbaa !54
  %136 = load ptr, ptr %6, align 8, !tbaa !14
  %137 = getelementptr inbounds nuw %struct.RDTDemuxContext, ptr %136, i32 0, i32 1
  %138 = load ptr, ptr %137, align 8, !tbaa !34
  %139 = load ptr, ptr %6, align 8, !tbaa !14
  %140 = getelementptr inbounds nuw %struct.RDTDemuxContext, ptr %139, i32 0, i32 7
  %141 = load i32, ptr %140, align 8, !tbaa !49
  %142 = sext i32 %141 to i64
  %143 = getelementptr inbounds ptr, ptr %138, i64 %142
  %144 = load ptr, ptr %143, align 8, !tbaa !37
  %145 = load ptr, ptr %7, align 8, !tbaa !72
  %146 = load ptr, ptr %10, align 8, !tbaa !55
  %147 = load i32, ptr %9, align 4, !tbaa !9
  %148 = load i32, ptr %12, align 4, !tbaa !9
  %149 = call i32 %129(ptr noundef %132, ptr noundef %135, ptr noundef %144, ptr noundef %145, ptr noundef %16, ptr noundef %146, i32 noundef %147, i16 noundef zeroext 0, i32 noundef %148)
  store i32 %149, ptr %17, align 4, !tbaa !9
  %150 = load i32, ptr %17, align 4, !tbaa !9
  store i32 %150, ptr %5, align 4
  store i32 1, ptr %18, align 4
  br label %151

151:                                              ; preds = %126, %123, %73, %66, %40, %31
  call void @llvm.lifetime.end.p0(i64 4, ptr %17) #12
  call void @llvm.lifetime.end.p0(i64 4, ptr %16) #12
  call void @llvm.lifetime.end.p0(i64 4, ptr %15) #12
  call void @llvm.lifetime.end.p0(i64 4, ptr %14) #12
  call void @llvm.lifetime.end.p0(i64 4, ptr %13) #12
  call void @llvm.lifetime.end.p0(i64 4, ptr %12) #12
  call void @llvm.lifetime.end.p0(i64 4, ptr %11) #12
  call void @llvm.lifetime.end.p0(i64 8, ptr %10) #12
  %152 = load i32, ptr %5, align 4
  ret i32 %152
}