; Function Attrs: nounwind uwtable
define i32 @ff_rdt_parse_packet(ptr noundef captures(none) %0, ptr noundef %1, ptr noundef readonly captures(address_is_null) %2, i32 noundef %3) local_unnamed_addr #0 {
  %5 = alloca i32, align 4
  %6 = alloca i32, align 4
  %7 = alloca i32, align 4
  %8 = alloca i32, align 4
  %9 = alloca i32, align 4
  %.not = icmp eq ptr %2, null
  br i1 %.not, label %.thread, label %10

10:                                               ; preds = %4
  %11 = load ptr, ptr %2, align 8, !tbaa !53
  call void @llvm.lifetime.start.p0(i64 4, ptr nonnull %5) #11
  call void @llvm.lifetime.start.p0(i64 4, ptr nonnull %6) #11
  call void @llvm.lifetime.start.p0(i64 4, ptr nonnull %7) #11
  call void @llvm.lifetime.start.p0(i64 4, ptr nonnull %8) #11
  call void @llvm.lifetime.start.p0(i64 4, ptr nonnull %9) #11
  %12 = getelementptr inbounds nuw i8, ptr %0, i64 32
  %13 = load ptr, ptr %12, align 8, !tbaa !46
  %.not47 = icmp eq ptr %13, null
  br i1 %.not47, label %71, label %16

.thread:                                          ; preds = %4
  call void @llvm.lifetime.start.p0(i64 4, ptr nonnull %5) #11
  call void @llvm.lifetime.start.p0(i64 4, ptr nonnull %6) #11
  call void @llvm.lifetime.start.p0(i64 4, ptr nonnull %7) #11
  call void @llvm.lifetime.start.p0(i64 4, ptr nonnull %8) #11
  call void @llvm.lifetime.start.p0(i64 4, ptr nonnull %9) #11
  %14 = getelementptr inbounds nuw i8, ptr %0, i64 32
  %15 = load ptr, ptr %14, align 8, !tbaa !46
  %.not4755 = icmp eq ptr %15, null
  br i1 %.not4755, label %71, label %.thread56

16:                                               ; preds = %10
  %.not48 = icmp eq ptr %11, null
  br i1 %.not48, label %.thread56, label %30

.thread56:                                        ; preds = %.thread, %16
  %17 = phi ptr [ %13, %16 ], [ %15, %.thread ]
  %18 = getelementptr inbounds nuw i8, ptr %0, i64 48
  %19 = load i32, ptr %18, align 8, !tbaa !42
  %.not49 = icmp eq i32 %19, -1
  br i1 %.not49, label %30, label %20

20:                                               ; preds = %.thread56
  store i32 0, ptr %9, align 4, !tbaa !52
  %21 = load ptr, ptr %0, align 8, !tbaa !4
  %22 = getelementptr inbounds nuw i8, ptr %0, i64 24
  %23 = load ptr, ptr %22, align 8, !tbaa !47
  %24 = getelementptr inbounds nuw i8, ptr %0, i64 8
  %25 = load ptr, ptr %24, align 8, !tbaa !27
  %26 = sext i32 %19 to i64
  %27 = getelementptr inbounds ptr, ptr %25, i64 %26
  %28 = load ptr, ptr %27, align 8, !tbaa !30
  %29 = call i32 %17(ptr noundef %21, ptr noundef %23, ptr noundef %28, ptr noundef %1, ptr noundef nonnull %9, ptr noundef null, i32 noundef 0, i16 noundef zeroext 0, i32 noundef 0) #11
  br label %71

30:                                               ; preds = %.thread56, %16
  %31 = phi ptr [ null, %.thread56 ], [ %11, %16 ]
  %32 = phi ptr [ %17, %.thread56 ], [ %13, %16 ]
  %33 = icmp slt i32 %3, 12
  br i1 %33, label %71, label %34

34:                                               ; preds = %30
  %35 = call i32 @ff_rdt_parse_header(ptr noundef %31, i32 noundef %3, ptr noundef nonnull %7, ptr noundef nonnull %5, ptr noundef nonnull %6, ptr noundef nonnull %8, ptr noundef nonnull %9)
  %36 = icmp slt i32 %35, 0
  br i1 %36, label %71, label %37

37:                                               ; preds = %34
  %38 = load i32, ptr %8, align 4, !tbaa !52
  %.not50 = icmp eq i32 %38, 0
  br i1 %.not50, label %52, label %39

39:                                               ; preds = %37
  %40 = load i32, ptr %7, align 4, !tbaa !52
  %41 = getelementptr inbounds nuw i8, ptr %0, i64 44
  %42 = load i32, ptr %41, align 4, !tbaa !41
  %.not51 = icmp eq i32 %40, %42
  %.pre = load i32, ptr %9, align 4, !tbaa !52
  br i1 %.not51, label %43, label %50

43:                                               ; preds = %39
  %44 = getelementptr inbounds nuw i8, ptr %0, i64 40
  %45 = load i32, ptr %44, align 8, !tbaa !43
  %.not52 = icmp eq i32 %.pre, %45
  br i1 %.not52, label %46, label %50

46:                                               ; preds = %43
  %47 = load i32, ptr %6, align 4, !tbaa !52
  %48 = getelementptr inbounds nuw i8, ptr %0, i64 48
  %49 = load i32, ptr %48, align 8, !tbaa !42
  %.not53 = icmp eq i32 %47, %49
  br i1 %.not53, label %52, label %50

50:                                               ; preds = %46, %43, %39
  store i32 %40, ptr %41, align 4, !tbaa !41
  %51 = getelementptr inbounds nuw i8, ptr %0, i64 40
  store i32 %.pre, ptr %51, align 8, !tbaa !43
  br label %52

52:                                               ; preds = %50, %46, %37
  %.0 = phi i32 [ 1, %50 ], [ 0, %46 ], [ 0, %37 ]
  %53 = load i32, ptr %6, align 4, !tbaa !52
  %54 = getelementptr inbounds nuw i8, ptr %0, i64 48
  store i32 %53, ptr %54, align 8, !tbaa !42
  %55 = getelementptr inbounds nuw i8, ptr %0, i64 16
  %56 = load i32, ptr %55, align 8, !tbaa !29
  %.not54 = icmp slt i32 %53, %56
  br i1 %.not54, label %58, label %57

57:                                               ; preds = %52
  store i32 -1, ptr %54, align 8, !tbaa !42
  br label %71

58:                                               ; preds = %52
  %59 = sub nsw i32 %3, %35
  %60 = zext nneg i32 %35 to i64
  %61 = getelementptr inbounds nuw i8, ptr %31, i64 %60
  %62 = load ptr, ptr %0, align 8, !tbaa !4
  %63 = getelementptr inbounds nuw i8, ptr %0, i64 24
  %64 = load ptr, ptr %63, align 8, !tbaa !47
  %65 = getelementptr inbounds nuw i8, ptr %0, i64 8
  %66 = load ptr, ptr %65, align 8, !tbaa !27
  %67 = sext i32 %53 to i64
  %68 = getelementptr inbounds ptr, ptr %66, i64 %67
  %69 = load ptr, ptr %68, align 8, !tbaa !30
  %70 = call i32 %32(ptr noundef %62, ptr noundef %64, ptr noundef %69, ptr noundef %1, ptr noundef nonnull %9, ptr noundef %61, i32 noundef %59, i16 noundef zeroext 0, i32 noundef %.0) #11
  br label %71

71:                                               ; preds = %.thread, %34, %30, %10, %58, %57, %20
  %.042 = phi i32 [ -1, %57 ], [ %70, %58 ], [ %29, %20 ], [ -1, %10 ], [ -1, %30 ], [ %35, %34 ], [ -1, %.thread ]
  call void @llvm.lifetime.end.p0(i64 4, ptr nonnull %9) #11
  call void @llvm.lifetime.end.p0(i64 4, ptr nonnull %8) #11
  call void @llvm.lifetime.end.p0(i64 4, ptr nonnull %7) #11
  call void @llvm.lifetime.end.p0(i64 4, ptr nonnull %6) #11
  call void @llvm.lifetime.end.p0(i64 4, ptr nonnull %5) #11
  ret i32 %.042
}